target datalayout = "e-m:e-p270:32:32-p271:32:32-p272:64:64-i64:64-i128:128-f80:128-n8:16:32:64-S128"
target triple = "x86_64-pc-linux-gnu"

%struct.TupleTableSlotOps = type { i64, ptr, ptr, ptr, ptr, ptr, ptr, ptr, ptr, ptr, ptr, ptr, ptr }
%struct.ValuesScanState = type { %struct.ScanState, ptr, ptr, ptr, i32, i32 }
%struct.ScanState = type { %struct.PlanState, ptr, ptr, ptr }
%struct.PlanState = type { i32, ptr, ptr, ptr, ptr, ptr, ptr, ptr, ptr, ptr, ptr, ptr, ptr, ptr, ptr, ptr, ptr, ptr, i8, ptr, ptr, ptr, ptr, ptr, i8, i8, i8, i8, i8, i8, i8, i8 }
%struct.TupleTableSlot = type { i32, i16, i16, ptr, ptr, ptr, ptr, ptr, %struct.ItemPointerData, i32 }
%struct.ItemPointerData = type { %struct.BlockIdData, i16 }
%struct.BlockIdData = type { i16, i16 }

; Function Attrs: inlinehint nounwind uwtable
define internal ptr @ExecClearTuple(ptr noundef %0) #2 {
  %2 = alloca ptr, align 8
  store ptr %0, ptr %2, align 8
  %3 = load ptr, ptr %2, align 8
  %4 = getelementptr inbounds nuw %struct.TupleTableSlot, ptr %3, i32 0, i32 3
  %5 = load ptr, ptr %4, align 8
  %6 = getelementptr inbounds nuw %struct.TupleTableSlotOps, ptr %5, i32 0, i32 3
  %7 = load ptr, ptr %6, align 8
  %8 = load ptr, ptr %2, align 8
  call void %7(ptr noundef %8)
  %9 = load ptr, ptr %2, align 8
  ret ptr %9
}

; Function Attrs: nounwind uwtable
define dso_local void @ExecReScanValuesScan(ptr noundef %0) #0 {
  %2 = alloca ptr, align 8
  store ptr %0, ptr %2, align 8
  %3 = load ptr, ptr %2, align 8
  %4 = getelementptr inbounds nuw %struct.ValuesScanState, ptr %3, i32 0, i32 0
  %5 = getelementptr inbounds nuw %struct.ScanState, ptr %4, i32 0, i32 0
  %6 = getelementptr inbounds nuw %struct.PlanState, ptr %5, i32 0, i32 15
  %7 = load ptr, ptr %6, align 8
  %8 = icmp ne ptr %7, null
  br i1 %8, label %9, label %16

9:                                                ; preds = %1
  %10 = load ptr, ptr %2, align 8
  %11 = getelementptr inbounds nuw %struct.ValuesScanState, ptr %10, i32 0, i32 0
  %12 = getelementptr inbounds nuw %struct.ScanState, ptr %11, i32 0, i32 0
  %13 = getelementptr inbounds nuw %struct.PlanState, ptr %12, i32 0, i32 15
  %14 = load ptr, ptr %13, align 8
  %15 = call ptr @ExecClearTuple(ptr noundef %14)
  br label %16

16:                                               ; preds = %9, %1
  %17 = load ptr, ptr %2, align 8
  %18 = getelementptr inbounds nuw %struct.ValuesScanState, ptr %17, i32 0, i32 0
  call void @ExecScanReScan(ptr noundef %18)
  %19 = load ptr, ptr %2, align 8
  %20 = getelementptr inbounds nuw %struct.ValuesScanState, ptr %19, i32 0, i32 5
  store i32 -1, ptr %20, align 4
  ret void
}