; Function Attrs: nounwind uwtable
define dso_local void @ExecReScanValuesScan(ptr noundef %0) local_unnamed_addr #0 {
  %2 = getelementptr inbounds nuw i8, ptr %0, i64 120
  %3 = load ptr, ptr %2, align 8
  %.not = icmp eq ptr %3, null
  br i1 %.not, label %9, label %4

4:                                                ; preds = %1
  %5 = getelementptr inbounds nuw i8, ptr %3, i64 8
  %6 = load ptr, ptr %5, align 8
  %7 = getelementptr inbounds nuw i8, ptr %6, i64 24
  %8 = load ptr, ptr %7, align 8
  tail call void %8(ptr noundef nonnull %3) #3
  br label %9

9:                                                ; preds = %4, %1
  tail call void @ExecScanReScan(ptr noundef nonnull %0) #3
  %10 = getelementptr inbounds nuw i8, ptr %0, i64 252
  store i32 -1, ptr %10, align 4
  ret void
}